target datalayout = "e-m:e-p270:32:32-p271:32:32-p272:64:64-i64:64-i128:128-f80:128-n8:16:32:64-S128"
target triple = "x86_64-pc-linux-gnu"

%class.FieldInformation = type { %class.QObject, %class.IDataPrintable, ptr, ptr }
%class.QObject = type { ptr, %class.QScopedPointer }
%class.QScopedPointer = type { ptr }
%class.IDataPrintable = type { ptr }
%struct.field_info = type { ptr, i32, i32, i32, i32, i32, i32, ptr, ptr, ptr, i32, i32 }

; Function Attrs: mustprogress nounwind uwtable
define noundef i32 @_ZN16FieldInformation8treeTypeEv(ptr noundef nonnull align 8 dereferenceable(40) %0) #2 align 2 {
  %2 = alloca i32, align 4
  %3 = alloca ptr, align 8
  store ptr %0, ptr %3, align 8
  %4 = load ptr, ptr %3, align 8
  %5 = getelementptr inbounds %class.FieldInformation, ptr %4, i32 0, i32 2
  %6 = load ptr, ptr %5, align 8
  %7 = icmp ne ptr %6, null
  br i1 %7, label %8, label %13

8:                                                ; preds = %1
  %9 = getelementptr inbounds %class.FieldInformation, ptr %4, i32 0, i32 2
  %10 = load ptr, ptr %9, align 8
  %11 = getelementptr inbounds %struct.field_info, ptr %10, i32 0, i32 5
  %12 = load i32, ptr %11, align 8
  store i32 %12, ptr %2, align 4
  br label %14

13:                                               ; preds = %1
  store i32 -1, ptr %2, align 4
  br label %14

14:                                               ; preds = %13, %8
  %15 = load i32, ptr %2, align 4
  ret i32 %15
}